; Function Attrs: mustprogress nounwind uwtable
define void @_ZN6Assimp22FindInvalidDataProcessC2Ev(ptr noundef nonnull align 8 dereferenceable(29) %this) unnamed_addr #0 align 2 {
entry:
  tail call void @_ZN6Assimp11BaseProcessC2Ev(ptr noundef nonnull align 8 dereferenceable(24) %this) #15
  store ptr getelementptr inbounds ({ [8 x ptr] }, ptr @_ZTVN6Assimp22FindInvalidDataProcessE, i64 0, i32 0, i64 2), ptr %this, align 8
  %configEpsilon = getelementptr inbounds i8, ptr %this, i64 24
  store float 0.000000e+00, ptr %configEpsilon, align 8
  %mIgnoreTexCoods = getelementptr inbounds i8, ptr %this, i64 28
  store i8 0, ptr %mIgnoreTexCoods, align 4
  ret void
}